target datalayout = "e-m:e-p270:32:32-p271:32:32-p272:64:64-i64:64-i128:128-f80:128-n8:16:32:64-S128"
target triple = "x86_64-pc-linux-gnu"

@H5VL_init_g = external global i8, align 1
@H5_libterm_g = external global i8, align 1
@H5VL_opt_ops_g = internal global [13 x ptr] zeroinitializer, align 16

; Function Attrs: nounwind uwtable
define i64 @H5VL__num_opt_operation() #0 {
  %1 = alloca i64, align 8
  %2 = alloca i64, align 8
  call void @llvm.lifetime.start.p0(i64 8, ptr %1) #4
  call void @llvm.lifetime.start.p0(i64 8, ptr %2) #4
  store i64 0, ptr %2, align 8, !tbaa !9
  %3 = load i8, ptr @H5VL_init_g, align 1, !tbaa !3, !range !7, !noundef !8
  %4 = trunc i8 %3 to i1
  br i1 %4, label %9, label %5

5:                                                ; preds = %0
  %6 = load i8, ptr @H5_libterm_g, align 1, !tbaa !3, !range !7, !noundef !8
  %7 = trunc i8 %6 to i1
  %8 = xor i1 %7, true
  br label %9

9:                                                ; preds = %5, %0
  %10 = phi i1 [ true, %0 ], [ %8, %5 ]
  %11 = xor i1 %10, true
  %12 = xor i1 %11, true
  %13 = zext i1 %12 to i32
  %14 = sext i32 %13 to i64
  %15 = call i64 @llvm.expect.i64(i64 %14, i64 1)
  %16 = icmp ne i64 %15, 0
  br i1 %16, label %17, label %38

17:                                               ; preds = %9
  store i64 0, ptr %1, align 8, !tbaa !9
  br label %18

18:                                               ; preds = %34, %17
  %19 = load i64, ptr %1, align 8, !tbaa !9
  %20 = icmp ult i64 %19, 13
  br i1 %20, label %21, label %37

21:                                               ; preds = %18
  %22 = load i64, ptr %1, align 8, !tbaa !9
  %23 = getelementptr inbounds nuw [13 x ptr], ptr @H5VL_opt_ops_g, i64 0, i64 %22
  %24 = load ptr, ptr %23, align 8, !tbaa !11
  %25 = icmp ne ptr %24, null
  br i1 %25, label %26, label %33

26:                                               ; preds = %21
  %27 = load i64, ptr %1, align 8, !tbaa !9
  %28 = getelementptr inbounds nuw [13 x ptr], ptr @H5VL_opt_ops_g, i64 0, i64 %27
  %29 = load ptr, ptr %28, align 8, !tbaa !11
  %30 = call i64 @H5SL_count(ptr noundef %29)
  %31 = load i64, ptr %2, align 8, !tbaa !9
  %32 = add i64 %31, %30
  store i64 %32, ptr %2, align 8, !tbaa !9
  br label %33

33:                                               ; preds = %26, %21
  br label %34

34:                                               ; preds = %33
  %35 = load i64, ptr %1, align 8, !tbaa !9
  %36 = add i64 %35, 1
  store i64 %36, ptr %1, align 8, !tbaa !9
  br label %18, !llvm.loop !28

37:                                               ; preds = %18
  br label %38

38:                                               ; preds = %37, %9
  %39 = load i64, ptr %2, align 8, !tbaa !9
  call void @llvm.lifetime.end.p0(i64 8, ptr %2) #4
  call void @llvm.lifetime.end.p0(i64 8, ptr %1) #4
  ret i64 %39
}