; Function Attrs: nounwind uwtable
define i64 @H5VL__num_opt_operation() local_unnamed_addr #0 {
  %1 = load i8, ptr @H5VL_init_g, align 1, !tbaa !3, !range !7, !noundef !8
  %2 = trunc nuw i8 %1 to i1
  %3 = load i8, ptr @H5_libterm_g, align 1, !range !7
  %4 = trunc nuw i8 %3 to i1
  %5 = xor i1 %4, true
  %6 = select i1 %2, i1 true, i1 %5
  br i1 %6, label %.preheader, label %.loopexit, !prof !9

.preheader:                                       ; preds = %0, %12
  %.19 = phi i64 [ %.2, %12 ], [ 0, %0 ]
  %.068 = phi i64 [ %13, %12 ], [ 0, %0 ]
  %7 = getelementptr inbounds nuw [13 x ptr], ptr @H5VL_opt_ops_g, i64 0, i64 %.068
  %8 = load ptr, ptr %7, align 8, !tbaa !10
  %.not = icmp eq ptr %8, null
  br i1 %.not, label %12, label %9

9:                                                ; preds = %.preheader
  %10 = tail call i64 @H5SL_count(ptr noundef nonnull %8) #2
  %11 = add i64 %10, %.19
  br label %12

12:                                               ; preds = %.preheader, %9
  %.2 = phi i64 [ %11, %9 ], [ %.19, %.preheader ]
  %13 = add nuw nsw i64 %.068, 1
  %exitcond.not = icmp eq i64 %13, 13
  br i1 %exitcond.not, label %.loopexit, label %.preheader, !llvm.loop !23

.loopexit:                                        ; preds = %12, %0
  %.0 = phi i64 [ 0, %0 ], [ %.2, %12 ]
  ret i64 %.0
}